target datalayout = "e-m:e-p270:32:32-p271:32:32-p272:64:64-i64:64-i128:128-f80:128-n8:16:32:64-S128"
target triple = "x86_64-pc-linux-gnu"

@.str.49 = private unnamed_addr constant [6 x i8] c".have\00", align 1

; Function Attrs: nounwind uwtable
define internal void @show_one_alternate_ref(ptr noundef %0, ptr noundef %1) #0 {
  %3 = alloca ptr, align 8
  %4 = alloca ptr, align 8
  %5 = alloca ptr, align 8
  %6 = alloca i32, align 4
  store ptr %0, ptr %3, align 8, !tbaa !166
  store ptr %1, ptr %4, align 8, !tbaa !45
  call void @llvm.lifetime.start.p0(i64 8, ptr %5) #15
  %7 = load ptr, ptr %4, align 8, !tbaa !45
  store ptr %7, ptr %5, align 8, !tbaa !167
  %8 = load ptr, ptr %5, align 8, !tbaa !167
  %9 = load ptr, ptr %3, align 8, !tbaa !166
  %10 = call i32 @oidset_insert(ptr noundef %8, ptr noundef %9)
  %11 = icmp ne i32 %10, 0
  br i1 %11, label %12, label %13

12:                                               ; preds = %2
  store i32 1, ptr %6, align 4
  br label %15

13:                                               ; preds = %2
  %14 = load ptr, ptr %3, align 8, !tbaa !166
  call void @show_ref(ptr noundef @.str.49, ptr noundef %14)
  store i32 0, ptr %6, align 4
  br label %15

15:                                               ; preds = %13, %12
  call void @llvm.lifetime.end.p0(i64 8, ptr %5) #15
  %16 = load i32, ptr %6, align 4
  switch i32 %16, label %18 [
    i32 0, label %17
    i32 1, label %17
  ]

17:                                               ; preds = %15, %15
  ret void

18:                                               ; preds = %15
  unreachable
}