; Function Attrs: nounwind uwtable
define internal void @show_one_alternate_ref(ptr noundef %0, ptr noundef %1) #0 {
  %3 = tail call i32 @oidset_insert(ptr noundef %1, ptr noundef %0) #21
  %.not = icmp eq i32 %3, 0
  br i1 %.not, label %4, label %5

4:                                                ; preds = %2
  tail call fastcc void @show_ref(ptr noundef nonnull @.str.49, ptr noundef %0)
  br label %5

5:                                                ; preds = %2, %4
  ret void
}